target datalayout = "e-m:e-p270:32:32-p271:32:32-p272:64:64-i64:64-i128:128-f80:128-n8:16:32:64-S128"
target triple = "x86_64-pc-linux-gnu"

%struct.lean_array_object = type { %struct.lean_object, i64, i64, [0 x ptr] }
%struct.lean_object = type { i32, i32 }

@.str = private unnamed_addr constant [11 x i8] c"4294967296\00", align 1

; Function Attrs: inlinehint nounwind uwtable
define internal ptr @lean_to_array(ptr noundef %0) #0 {
  %2 = alloca ptr, align 8
  store ptr %0, ptr %2, align 8, !tbaa !8
  %3 = load ptr, ptr %2, align 8, !tbaa !8
  ret ptr %3
}

; Function Attrs: inlinehint nounwind uwtable
define internal i64 @lean_unbox(ptr noundef %0) #0 {
  %2 = alloca ptr, align 8
  store ptr %0, ptr %2, align 8, !tbaa !8
  %3 = load ptr, ptr %2, align 8, !tbaa !8
  %4 = ptrtoint ptr %3 to i64
  %5 = lshr i64 %4, 1
  ret i64 %5
}

; Function Attrs: alwaysinline nounwind uwtable
define internal void @lean_dec_ref(ptr noundef %0) #1 {
  %2 = alloca ptr, align 8
  store ptr %0, ptr %2, align 8, !tbaa !8
  %3 = load ptr, ptr %2, align 8, !tbaa !8
  %4 = getelementptr inbounds nuw %struct.lean_object, ptr %3, i32 0, i32 0
  %5 = load i32, ptr %4, align 4, !tbaa !15
  %6 = icmp sgt i32 %5, 1
  %7 = zext i1 %6 to i32
  %8 = sext i32 %7 to i64
  %9 = call i64 @llvm.expect.i64(i64 %8, i64 1)
  %10 = icmp ne i64 %9, 0
  br i1 %10, label %11, label %16

11:                                               ; preds = %1
  %12 = load ptr, ptr %2, align 8, !tbaa !8
  %13 = getelementptr inbounds nuw %struct.lean_object, ptr %12, i32 0, i32 0
  %14 = load i32, ptr %13, align 4, !tbaa !15
  %15 = add i32 %14, -1
  store i32 %15, ptr %13, align 4, !tbaa !15
  br label %24

16:                                               ; preds = %1
  %17 = load ptr, ptr %2, align 8, !tbaa !8
  %18 = getelementptr inbounds nuw %struct.lean_object, ptr %17, i32 0, i32 0
  %19 = load i32, ptr %18, align 4, !tbaa !15
  %20 = icmp ne i32 %19, 0
  br i1 %20, label %21, label %23

21:                                               ; preds = %16
  %22 = load ptr, ptr %2, align 8, !tbaa !8
  call void @lean_dec_ref_cold(ptr noundef %22)
  br label %23

23:                                               ; preds = %21, %16
  br label %24

24:                                               ; preds = %23, %11
  ret void
}

; Function Attrs: alwaysinline nounwind uwtable
define internal zeroext i1 @lean_is_scalar(ptr noundef %0) #1 {
  %2 = alloca ptr, align 8
  store ptr %0, ptr %2, align 8, !tbaa !8
  %3 = load ptr, ptr %2, align 8, !tbaa !8
  %4 = ptrtoint ptr %3 to i64
  %5 = and i64 %4, 1
  %6 = icmp eq i64 %5, 1
  ret i1 %6
}

; Function Attrs: alwaysinline nounwind uwtable
define internal zeroext i1 @lean_nat_lt(ptr noundef %0, ptr noundef %1) #1 {
  %3 = alloca i1, align 1
  %4 = alloca ptr, align 8
  %5 = alloca ptr, align 8
  store ptr %0, ptr %4, align 8, !tbaa !8
  store ptr %1, ptr %5, align 8, !tbaa !8
  %6 = load ptr, ptr %4, align 8, !tbaa !8
  %7 = call zeroext i1 @lean_is_scalar(ptr noundef %6)
  br i1 %7, label %8, label %11

8:                                                ; preds = %2
  %9 = load ptr, ptr %5, align 8, !tbaa !8
  %10 = call zeroext i1 @lean_is_scalar(ptr noundef %9)
  br label %11

11:                                               ; preds = %8, %2
  %12 = phi i1 [ false, %2 ], [ %10, %8 ]
  %13 = zext i1 %12 to i32
  %14 = sext i32 %13 to i64
  %15 = call i64 @llvm.expect.i64(i64 %14, i64 1)
  %16 = icmp ne i64 %15, 0
  br i1 %16, label %17, label %21

17:                                               ; preds = %11
  %18 = load ptr, ptr %4, align 8, !tbaa !8
  %19 = load ptr, ptr %5, align 8, !tbaa !8
  %20 = icmp ult ptr %18, %19
  store i1 %20, ptr %3, align 1
  br label %25

21:                                               ; preds = %11
  %22 = load ptr, ptr %4, align 8, !tbaa !8
  %23 = load ptr, ptr %5, align 8, !tbaa !8
  %24 = call zeroext i1 @lean_nat_big_lt(ptr noundef %22, ptr noundef %23)
  store i1 %24, ptr %3, align 1
  br label %25

25:                                               ; preds = %21, %17
  %26 = load i1, ptr %3, align 1
  ret i1 %26
}

; Function Attrs: inlinehint nounwind uwtable
define internal ptr @lean_usize_to_nat(i64 noundef %0) #0 {
  %2 = alloca ptr, align 8
  %3 = alloca i64, align 8
  store i64 %0, ptr %3, align 8, !tbaa !4
  %4 = load i64, ptr %3, align 8, !tbaa !4
  %5 = icmp ule i64 %4, 9223372036854775807
  %6 = zext i1 %5 to i32
  %7 = sext i32 %6 to i64
  %8 = call i64 @llvm.expect.i64(i64 %7, i64 1)
  %9 = icmp ne i64 %8, 0
  br i1 %9, label %10, label %13

10:                                               ; preds = %1
  %11 = load i64, ptr %3, align 8, !tbaa !4
  %12 = call ptr @lean_box(i64 noundef %11)
  store ptr %12, ptr %2, align 8
  br label %16

13:                                               ; preds = %1
  %14 = load i64, ptr %3, align 8, !tbaa !4
  %15 = call ptr @lean_big_usize_to_nat(i64 noundef %14)
  store ptr %15, ptr %2, align 8
  br label %16

16:                                               ; preds = %13, %10
  %17 = load ptr, ptr %2, align 8
  ret ptr %17
}

; Function Attrs: inlinehint nounwind uwtable
define internal i64 @lean_array_size(ptr noundef %0) #0 {
  %2 = alloca ptr, align 8
  store ptr %0, ptr %2, align 8, !tbaa !8
  %3 = load ptr, ptr %2, align 8, !tbaa !8
  %4 = call ptr @lean_to_array(ptr noundef %3)
  %5 = getelementptr inbounds nuw %struct.lean_array_object, ptr %4, i32 0, i32 1
  %6 = load i64, ptr %5, align 8, !tbaa !4
  ret i64 %6
}

; Function Attrs: inlinehint nounwind uwtable
define internal i64 @lean_usize_of_nat(ptr noundef %0) #0 {
  %2 = alloca ptr, align 8
  store ptr %0, ptr %2, align 8, !tbaa !8
  %3 = load ptr, ptr %2, align 8, !tbaa !8
  %4 = call zeroext i1 @lean_is_scalar(ptr noundef %3)
  br i1 %4, label %5, label %8

5:                                                ; preds = %1
  %6 = load ptr, ptr %2, align 8, !tbaa !8
  %7 = call i64 @lean_unbox(ptr noundef %6)
  br label %11

8:                                                ; preds = %1
  %9 = load ptr, ptr %2, align 8, !tbaa !8
  %10 = call i64 @lean_usize_of_big_nat(ptr noundef %9)
  br label %11

11:                                               ; preds = %8, %5
  %12 = phi i64 [ %7, %5 ], [ %10, %8 ]
  ret i64 %12
}

; Function Attrs: inlinehint nounwind uwtable
define internal ptr @lean_box(i64 noundef %0) #0 {
  %2 = alloca i64, align 8
  store i64 %0, ptr %2, align 8, !tbaa !4
  %3 = load i64, ptr %2, align 8, !tbaa !4
  %4 = shl i64 %3, 1
  %5 = or i64 %4, 1
  %6 = inttoptr i64 %5 to ptr
  ret ptr %6
}

; Function Attrs: alwaysinline nounwind uwtable
define internal void @lean_dec(ptr noundef %0) #1 {
  %2 = alloca ptr, align 8
  store ptr %0, ptr %2, align 8, !tbaa !8
  %3 = load ptr, ptr %2, align 8, !tbaa !8
  %4 = call zeroext i1 @lean_is_scalar(ptr noundef %3)
  br i1 %4, label %7, label %5

5:                                                ; preds = %1
  %6 = load ptr, ptr %2, align 8, !tbaa !8
  call void @lean_dec_ref(ptr noundef %6)
  br label %7

7:                                                ; preds = %5, %1
  ret void
}

; Function Attrs: alwaysinline nounwind uwtable
define internal zeroext i8 @lean_nat_dec_lt(ptr noundef %0, ptr noundef %1) #1 {
  %3 = alloca ptr, align 8
  %4 = alloca ptr, align 8
  store ptr %0, ptr %3, align 8, !tbaa !8
  store ptr %1, ptr %4, align 8, !tbaa !8
  %5 = load ptr, ptr %3, align 8, !tbaa !8
  %6 = load ptr, ptr %4, align 8, !tbaa !8
  %7 = call zeroext i1 @lean_nat_lt(ptr noundef %5, ptr noundef %6)
  %8 = zext i1 %7 to i8
  ret i8 %8
}

; Function Attrs: inlinehint nounwind uwtable
define internal ptr @lean_unsigned_to_nat(i32 noundef %0) #0 {
  %2 = alloca i32, align 4
  store i32 %0, ptr %2, align 4, !tbaa !13
  %3 = load i32, ptr %2, align 4, !tbaa !13
  %4 = zext i32 %3 to i64
  %5 = call ptr @lean_usize_to_nat(i64 noundef %4)
  ret ptr %5
}

; Function Attrs: inlinehint nounwind uwtable
define internal ptr @lean_array_get_size(ptr noundef %0) #0 {
  %2 = alloca ptr, align 8
  store ptr %0, ptr %2, align 8, !tbaa !8
  %3 = load ptr, ptr %2, align 8, !tbaa !8
  %4 = call i64 @lean_array_size(ptr noundef %3)
  %5 = call ptr @lean_box(i64 noundef %4)
  ret ptr %5
}

; Function Attrs: nounwind uwtable
define ptr @l_Lean_IR_ExplicitBoxing_getScrutineeType(ptr noundef %0) #2 {
  %2 = alloca ptr, align 8
  %3 = alloca ptr, align 8
  %4 = alloca ptr, align 8
  %5 = alloca ptr, align 8
  %6 = alloca ptr, align 8
  %7 = alloca i8, align 1
  %8 = alloca ptr, align 8
  %9 = alloca i32, align 4
  %10 = alloca ptr, align 8
  %11 = alloca i8, align 1
  %12 = alloca ptr, align 8
  %13 = alloca i64, align 8
  %14 = alloca i64, align 8
  %15 = alloca i8, align 1
  %16 = alloca ptr, align 8
  %17 = alloca ptr, align 8
  %18 = alloca ptr, align 8
  %19 = alloca i8, align 1
  %20 = alloca ptr, align 8
  %21 = alloca i8, align 1
  %22 = alloca ptr, align 8
  %23 = alloca i8, align 1
  %24 = alloca ptr, align 8
  %25 = alloca ptr, align 8
  %26 = alloca ptr, align 8
  %27 = alloca ptr, align 8
  store ptr %0, ptr %3, align 8, !tbaa !8
  br label %28

28:                                               ; preds = %1
  call void @llvm.lifetime.start.p0(i64 8, ptr %4) #7
  call void @llvm.lifetime.start.p0(i64 8, ptr %5) #7
  call void @llvm.lifetime.start.p0(i64 8, ptr %6) #7
  call void @llvm.lifetime.start.p0(i64 1, ptr %7) #7
  %29 = load ptr, ptr %3, align 8, !tbaa !8
  %30 = call ptr @lean_array_get_size(ptr noundef %29)
  store ptr %30, ptr %4, align 8, !tbaa !8
  %31 = call ptr @lean_unsigned_to_nat(i32 noundef 1)
  store ptr %31, ptr %6, align 8, !tbaa !8
  %32 = load ptr, ptr %6, align 8, !tbaa !8
  %33 = load ptr, ptr %4, align 8, !tbaa !8
  %34 = call zeroext i8 @lean_nat_dec_lt(ptr noundef %32, ptr noundef %33)
  store i8 %34, ptr %7, align 1, !tbaa !12
  %35 = load i8, ptr %7, align 1, !tbaa !12
  %36 = zext i8 %35 to i32
  %37 = icmp eq i32 %36, 0
  br i1 %37, label %38, label %42

38:                                               ; preds = %28
  call void @llvm.lifetime.start.p0(i64 8, ptr %8) #7
  %39 = load ptr, ptr %4, align 8, !tbaa !8
  call void @lean_dec(ptr noundef %39)
  %40 = call ptr @lean_box(i64 noundef 7)
  store ptr %40, ptr %8, align 8, !tbaa !8
  %41 = load ptr, ptr %8, align 8, !tbaa !8
  store ptr %41, ptr %2, align 8
  store i32 1, ptr %9, align 4
  call void @llvm.lifetime.end.p0(i64 8, ptr %8) #7
  br label %116

42:                                               ; preds = %28
  call void @llvm.lifetime.start.p0(i64 8, ptr %10) #7
  call void @llvm.lifetime.start.p0(i64 1, ptr %11) #7
  %43 = call ptr @lean_unsigned_to_nat(i32 noundef 0)
  store ptr %43, ptr %10, align 8, !tbaa !8
  %44 = load ptr, ptr %10, align 8, !tbaa !8
  %45 = load ptr, ptr %4, align 8, !tbaa !8
  %46 = call zeroext i8 @lean_nat_dec_lt(ptr noundef %44, ptr noundef %45)
  store i8 %46, ptr %11, align 1, !tbaa !12
  %47 = load i8, ptr %11, align 1, !tbaa !12
  %48 = zext i8 %47 to i32
  %49 = icmp eq i32 %48, 0
  br i1 %49, label %50, label %53

50:                                               ; preds = %42
  call void @llvm.lifetime.start.p0(i64 8, ptr %12) #7
  %51 = call ptr @lean_box(i64 noundef 0)
  store ptr %51, ptr %12, align 8, !tbaa !8
  %52 = load ptr, ptr %12, align 8, !tbaa !8
  store ptr %52, ptr %5, align 8, !tbaa !8
  store i32 3, ptr %9, align 4
  call void @llvm.lifetime.end.p0(i64 8, ptr %12) #7
  br label %71

53:                                               ; preds = %42
  call void @llvm.lifetime.start.p0(i64 8, ptr %13) #7
  call void @llvm.lifetime.start.p0(i64 8, ptr %14) #7
  call void @llvm.lifetime.start.p0(i64 1, ptr %15) #7
  store i64 0, ptr %13, align 8, !tbaa !4
  %54 = load ptr, ptr %4, align 8, !tbaa !8
  %55 = call i64 @lean_usize_of_nat(ptr noundef %54)
  store i64 %55, ptr %14, align 8, !tbaa !4
  %56 = load ptr, ptr %3, align 8, !tbaa !8
  %57 = load i64, ptr %13, align 8, !tbaa !4
  %58 = load i64, ptr %14, align 8, !tbaa !4
  %59 = call zeroext i8 @l_Array_anyMUnsafe_any___at_Lean_IR_ExplicitBoxing_getScrutineeType___spec__1(ptr noundef %56, i64 noundef %57, i64 noundef %58)
  store i8 %59, ptr %15, align 1, !tbaa !12
  %60 = load i8, ptr %15, align 1, !tbaa !12
  %61 = zext i8 %60 to i32
  %62 = icmp eq i32 %61, 0
  br i1 %62, label %63, label %66

63:                                               ; preds = %53
  call void @llvm.lifetime.start.p0(i64 8, ptr %16) #7
  %64 = call ptr @lean_box(i64 noundef 0)
  store ptr %64, ptr %16, align 8, !tbaa !8
  %65 = load ptr, ptr %16, align 8, !tbaa !8
  store ptr %65, ptr %5, align 8, !tbaa !8
  store i32 3, ptr %9, align 4
  call void @llvm.lifetime.end.p0(i64 8, ptr %16) #7
  br label %70

66:                                               ; preds = %53
  call void @llvm.lifetime.start.p0(i64 8, ptr %17) #7
  %67 = load ptr, ptr %4, align 8, !tbaa !8
  call void @lean_dec(ptr noundef %67)
  %68 = call ptr @lean_box(i64 noundef 7)
  store ptr %68, ptr %17, align 8, !tbaa !8
  %69 = load ptr, ptr %17, align 8, !tbaa !8
  store ptr %69, ptr %2, align 8
  store i32 1, ptr %9, align 4
  call void @llvm.lifetime.end.p0(i64 8, ptr %17) #7
  br label %70

70:                                               ; preds = %66, %63
  call void @llvm.lifetime.end.p0(i64 1, ptr %15) #7
  call void @llvm.lifetime.end.p0(i64 8, ptr %14) #7
  call void @llvm.lifetime.end.p0(i64 8, ptr %13) #7
  br label %71

71:                                               ; preds = %70, %50
  call void @llvm.lifetime.end.p0(i64 1, ptr %11) #7
  call void @llvm.lifetime.end.p0(i64 8, ptr %10) #7
  %72 = load i32, ptr %9, align 4
  switch i32 %72, label %116 [
    i32 3, label %73
  ]

73:                                               ; preds = %71
  call void @llvm.lifetime.start.p0(i64 8, ptr %18) #7
  call void @llvm.lifetime.start.p0(i64 1, ptr %19) #7
  %74 = load ptr, ptr %5, align 8, !tbaa !8
  call void @lean_dec(ptr noundef %74)
  %75 = call ptr @lean_unsigned_to_nat(i32 noundef 256)
  store ptr %75, ptr %18, align 8, !tbaa !8
  %76 = load ptr, ptr %4, align 8, !tbaa !8
  %77 = load ptr, ptr %18, align 8, !tbaa !8
  %78 = call zeroext i8 @lean_nat_dec_lt(ptr noundef %76, ptr noundef %77)
  store i8 %78, ptr %19, align 1, !tbaa !12
  %79 = load i8, ptr %19, align 1, !tbaa !12
  %80 = zext i8 %79 to i32
  %81 = icmp eq i32 %80, 0
  br i1 %81, label %82, label %111

82:                                               ; preds = %73
  call void @llvm.lifetime.start.p0(i64 8, ptr %20) #7
  call void @llvm.lifetime.start.p0(i64 1, ptr %21) #7
  %83 = call ptr @lean_unsigned_to_nat(i32 noundef 65536)
  store ptr %83, ptr %20, align 8, !tbaa !8
  %84 = load ptr, ptr %4, align 8, !tbaa !8
  %85 = load ptr, ptr %20, align 8, !tbaa !8
  %86 = call zeroext i8 @lean_nat_dec_lt(ptr noundef %84, ptr noundef %85)
  store i8 %86, ptr %21, align 1, !tbaa !12
  %87 = load i8, ptr %21, align 1, !tbaa !12
  %88 = zext i8 %87 to i32
  %89 = icmp eq i32 %88, 0
  br i1 %89, label %90, label %106

90:                                               ; preds = %82
  call void @llvm.lifetime.start.p0(i64 8, ptr %22) #7
  call void @llvm.lifetime.start.p0(i64 1, ptr %23) #7
  %91 = call ptr @lean_cstr_to_nat(ptr noundef @.str)
  store ptr %91, ptr %22, align 8, !tbaa !8
  %92 = load ptr, ptr %4, align 8, !tbaa !8
  %93 = load ptr, ptr %22, align 8, !tbaa !8
  %94 = call zeroext i8 @lean_nat_dec_lt(ptr noundef %92, ptr noundef %93)
  store i8 %94, ptr %23, align 1, !tbaa !12
  %95 = load ptr, ptr %4, align 8, !tbaa !8
  call void @lean_dec(ptr noundef %95)
  %96 = load i8, ptr %23, align 1, !tbaa !12
  %97 = zext i8 %96 to i32
  %98 = icmp eq i32 %97, 0
  br i1 %98, label %99, label %102

99:                                               ; preds = %90
  call void @llvm.lifetime.start.p0(i64 8, ptr %24) #7
  %100 = call ptr @lean_box(i64 noundef 7)
  store ptr %100, ptr %24, align 8, !tbaa !8
  %101 = load ptr, ptr %24, align 8, !tbaa !8
  store ptr %101, ptr %2, align 8
  store i32 1, ptr %9, align 4
  call void @llvm.lifetime.end.p0(i64 8, ptr %24) #7
  br label %105

102:                                              ; preds = %90
  call void @llvm.lifetime.start.p0(i64 8, ptr %25) #7
  %103 = call ptr @lean_box(i64 noundef 3)
  store ptr %103, ptr %25, align 8, !tbaa !8
  %104 = load ptr, ptr %25, align 8, !tbaa !8
  store ptr %104, ptr %2, align 8
  store i32 1, ptr %9, align 4
  call void @llvm.lifetime.end.p0(i64 8, ptr %25) #7
  br label %105

105:                                              ; preds = %102, %99
  call void @llvm.lifetime.end.p0(i64 1, ptr %23) #7
  call void @llvm.lifetime.end.p0(i64 8, ptr %22) #7
  br label %110

106:                                              ; preds = %82
  call void @llvm.lifetime.start.p0(i64 8, ptr %26) #7
  %107 = load ptr, ptr %4, align 8, !tbaa !8
  call void @lean_dec(ptr noundef %107)
  %108 = call ptr @lean_box(i64 noundef 2)
  store ptr %108, ptr %26, align 8, !tbaa !8
  %109 = load ptr, ptr %26, align 8, !tbaa !8
  store ptr %109, ptr %2, align 8
  store i32 1, ptr %9, align 4
  call void @llvm.lifetime.end.p0(i64 8, ptr %26) #7
  br label %110

110:                                              ; preds = %106, %105
  call void @llvm.lifetime.end.p0(i64 1, ptr %21) #7
  call void @llvm.lifetime.end.p0(i64 8, ptr %20) #7
  br label %115

111:                                              ; preds = %73
  call void @llvm.lifetime.start.p0(i64 8, ptr %27) #7
  %112 = load ptr, ptr %4, align 8, !tbaa !8
  call void @lean_dec(ptr noundef %112)
  %113 = call ptr @lean_box(i64 noundef 1)
  store ptr %113, ptr %27, align 8, !tbaa !8
  %114 = load ptr, ptr %27, align 8, !tbaa !8
  store ptr %114, ptr %2, align 8
  store i32 1, ptr %9, align 4
  call void @llvm.lifetime.end.p0(i64 8, ptr %27) #7
  br label %115

115:                                              ; preds = %111, %110
  call void @llvm.lifetime.end.p0(i64 1, ptr %19) #7
  call void @llvm.lifetime.end.p0(i64 8, ptr %18) #7
  br label %116

116:                                              ; preds = %115, %71, %38
  call void @llvm.lifetime.end.p0(i64 1, ptr %7) #7
  call void @llvm.lifetime.end.p0(i64 8, ptr %6) #7
  call void @llvm.lifetime.end.p0(i64 8, ptr %5) #7
  call void @llvm.lifetime.end.p0(i64 8, ptr %4) #7
  %117 = load ptr, ptr %2, align 8
  ret ptr %117
}