; Function Attrs: nounwind uwtable
define nonnull ptr @l_Lean_IR_ExplicitBoxing_getScrutineeType(ptr noundef readonly captures(none) %0) local_unnamed_addr #0 {
lean_nat_lt.exit:
  %1 = getelementptr i8, ptr %0, i64 8
  %.val = load i64, ptr %1, align 8, !tbaa !8
  %2 = shl i64 %.val, 1
  %3 = or disjoint i64 %2, 1
  %4 = inttoptr i64 %3 to ptr
  %5 = icmp ult i64 %2, 4
  br i1 %5, label %lean_dec.exit44, label %lean_nat_lt.exit57

lean_nat_lt.exit57:                               ; preds = %lean_nat_lt.exit
  %6 = and i64 %.val, 9223372036854775807
  %7 = tail call zeroext i8 @l_Array_anyMUnsafe_any___at_Lean_IR_ExplicitBoxing_getScrutineeType___spec__1(ptr noundef nonnull %0, i64 noundef 0, i64 noundef %6)
  %8 = icmp eq i8 %7, 0
  br i1 %8, label %lean_nat_lt.exit60, label %lean_dec.exit44

lean_nat_lt.exit60:                               ; preds = %lean_nat_lt.exit57
  %9 = icmp ugt i64 %2, 511
  br i1 %9, label %lean_nat_lt.exit63, label %lean_dec.exit44

lean_nat_lt.exit63:                               ; preds = %lean_nat_lt.exit60
  %10 = icmp ugt i64 %2, 131071
  br i1 %10, label %11, label %lean_dec.exit44

11:                                               ; preds = %lean_nat_lt.exit63
  %12 = tail call ptr @lean_cstr_to_nat(ptr noundef nonnull @.str) #6
  %13 = ptrtoint ptr %12 to i64
  %14 = and i64 %13, 1
  %.not = icmp eq i64 %14, 0
  br i1 %.not, label %.critedge.i64, label %15, !prof !14

15:                                               ; preds = %11
  %16 = icmp ugt ptr %12, %4
  br label %lean_dec.exit41

.critedge.i64:                                    ; preds = %11
  %17 = tail call zeroext i1 @lean_nat_big_lt(ptr noundef nonnull %4, ptr noundef %12) #6
  br label %lean_dec.exit41

lean_dec.exit41:                                  ; preds = %.critedge.i64, %15
  %.0.i65 = phi i1 [ %16, %15 ], [ %17, %.critedge.i64 ]
  %spec.select = select i1 %.0.i65, ptr inttoptr (i64 7 to ptr), ptr inttoptr (i64 15 to ptr)
  br label %lean_dec.exit44

lean_dec.exit44:                                  ; preds = %lean_dec.exit41, %lean_nat_lt.exit60, %lean_nat_lt.exit63, %lean_nat_lt.exit57, %lean_nat_lt.exit
  %.0 = phi ptr [ inttoptr (i64 15 to ptr), %lean_nat_lt.exit ], [ inttoptr (i64 15 to ptr), %lean_nat_lt.exit57 ], [ inttoptr (i64 5 to ptr), %lean_nat_lt.exit63 ], [ inttoptr (i64 3 to ptr), %lean_nat_lt.exit60 ], [ %spec.select, %lean_dec.exit41 ]
  ret ptr %.0
}